target datalayout = "e-m:e-p270:32:32-p271:32:32-p272:64:64-i64:64-i128:128-f80:128-n8:16:32:64-S128"
target triple = "x86_64-pc-linux-gnu"

%"class.lean::expr_cache" = type { i32, %"class.std::vector", %"class.std::vector.0" }
%"class.std::vector" = type { %"struct.std::_Vector_base" }
%"struct.std::_Vector_base" = type { %"struct.std::_Vector_base<lean::expr_cache::entry, std::allocator<lean::expr_cache::entry>>::_Vector_impl" }
%"struct.std::_Vector_base<lean::expr_cache::entry, std::allocator<lean::expr_cache::entry>>::_Vector_impl" = type { %"struct.std::_Vector_base<lean::expr_cache::entry, std::allocator<lean::expr_cache::entry>>::_Vector_impl_data" }
%"struct.std::_Vector_base<lean::expr_cache::entry, std::allocator<lean::expr_cache::entry>>::_Vector_impl_data" = type { ptr, ptr, ptr }
%"class.std::vector.0" = type { %"struct.std::_Vector_base.1" }
%"struct.std::_Vector_base.1" = type { %"struct.std::_Vector_base<unsigned int, std::allocator<unsigned int>>::_Vector_impl" }
%"struct.std::_Vector_base<unsigned int, std::allocator<unsigned int>>::_Vector_impl" = type { %"struct.std::_Vector_base<unsigned int, std::allocator<unsigned int>>::_Vector_impl_data" }
%"struct.std::_Vector_base<unsigned int, std::allocator<unsigned int>>::_Vector_impl_data" = type { ptr, ptr, ptr }
%"struct.lean::expr_cache::entry" = type { %"class.lean::optional", %"class.lean::expr" }
%"class.lean::optional" = type { i8, %union.anon }
%union.anon = type { %"class.lean::expr" }
%"class.lean::expr" = type { %"class.lean::object_ref" }
%"class.lean::object_ref" = type { ptr }
%struct.lean_ctor_object = type { %struct.lean_object, [0 x ptr] }
%struct.lean_object = type { i32, i32 }

; Function Attrs: inlinehint mustprogress nounwind uwtable
define internal noundef ptr @_ZL12lean_to_ctorP11lean_object(ptr noundef %0) #5 {
  %2 = alloca ptr, align 8
  store ptr %0, ptr %2, align 8, !tbaa !50
  %3 = load ptr, ptr %2, align 8, !tbaa !50
  ret ptr %3
}

; Function Attrs: inlinehint mustprogress uwtable
define internal noundef ptr @_ZL18lean_ctor_obj_cptrP11lean_object(ptr noundef %0) #2 {
  %2 = alloca ptr, align 8
  store ptr %0, ptr %2, align 8, !tbaa !50
  %3 = load ptr, ptr %2, align 8, !tbaa !50
  %4 = call noundef ptr @_ZL12lean_to_ctorP11lean_object(ptr noundef %3)
  %5 = getelementptr inbounds nuw %struct.lean_ctor_object, ptr %4, i32 0, i32 1
  %6 = getelementptr inbounds [0 x ptr], ptr %5, i64 0, i64 0
  ret ptr %6
}

; Function Attrs: inlinehint mustprogress nounwind uwtable
define internal noundef i32 @_ZL14lean_ptr_otherP11lean_object(ptr noundef %0) #5 {
  %2 = alloca ptr, align 8
  store ptr %0, ptr %2, align 8, !tbaa !50
  %3 = load ptr, ptr %2, align 8, !tbaa !50
  %4 = getelementptr inbounds nuw %struct.lean_object, ptr %3, i32 0, i32 1
  %5 = load i32, ptr %4, align 4
  %6 = lshr i32 %5, 16
  %7 = and i32 %6, 255
  ret i32 %7
}

; Function Attrs: inlinehint mustprogress uwtable
define internal noundef i64 @_ZL20lean_ctor_get_uint64P11lean_objectj(ptr noundef %0, i32 noundef %1) #2 {
  %3 = alloca ptr, align 8
  %4 = alloca i32, align 4
  store ptr %0, ptr %3, align 8, !tbaa !50
  store i32 %1, ptr %4, align 4, !tbaa !23
  %5 = load ptr, ptr %3, align 8, !tbaa !50
  %6 = call noundef ptr @_ZL18lean_ctor_obj_cptrP11lean_object(ptr noundef %5)
  %7 = load i32, ptr %4, align 4, !tbaa !23
  %8 = zext i32 %7 to i64
  %9 = getelementptr inbounds nuw i8, ptr %6, i64 %8
  %10 = load i64, ptr %9, align 8, !tbaa !26
  ret i64 %10
}

; Function Attrs: inlinehint mustprogress uwtable
define internal noundef i32 @_ZL18lean_ctor_num_objsP11lean_object(ptr noundef %0) #2 {
  %2 = alloca ptr, align 8
  store ptr %0, ptr %2, align 8, !tbaa !50
  %3 = load ptr, ptr %2, align 8, !tbaa !50
  %4 = call noundef i32 @_ZL14lean_ptr_otherP11lean_object(ptr noundef %3)
  ret i32 %4
}

; Function Attrs: mustprogress nounwind uwtable
define linkonce_odr hidden noundef ptr @_ZNK4lean10object_ref3rawEv(ptr noundef nonnull align 8 dereferenceable(8) %0) #3 comdat align 2 {
  %2 = alloca ptr, align 8
  store ptr %0, ptr %2, align 8, !tbaa !45
  %3 = load ptr, ptr %2, align 8
  %4 = getelementptr inbounds nuw %"class.lean::object_ref", ptr %3, i32 0, i32 0
  %5 = load ptr, ptr %4, align 8, !tbaa !47
  ret ptr %5
}

; Function Attrs: inlinehint mustprogress uwtable
define linkonce_odr hidden noundef i64 @_ZN4lean8get_dataERKNS_4exprE(ptr noundef nonnull align 8 dereferenceable(8) %0) #2 comdat {
  %2 = alloca ptr, align 8
  store ptr %0, ptr %2, align 8, !tbaa !8
  %3 = load ptr, ptr %2, align 8, !tbaa !8
  %4 = call noundef ptr @_ZNK4lean10object_ref3rawEv(ptr noundef nonnull align 8 dereferenceable(8) %3)
  %5 = load ptr, ptr %2, align 8, !tbaa !8
  %6 = call noundef ptr @_ZNK4lean10object_ref3rawEv(ptr noundef nonnull align 8 dereferenceable(8) %5)
  %7 = call noundef i32 @_ZL18lean_ctor_num_objsP11lean_object(ptr noundef %6)
  %8 = zext i32 %7 to i64
  %9 = mul i64 %8, 8
  %10 = trunc i64 %9 to i32
  %11 = call noundef i64 @_ZL20lean_ctor_get_uint64P11lean_objectj(ptr noundef %4, i32 noundef %10)
  ret i64 %11
}

; Function Attrs: mustprogress nounwind uwtable
define linkonce_odr hidden noundef nonnull align 8 dereferenceable(8) ptr @_ZN4lean8optionalINS_4exprEEdeEv(ptr noundef nonnull align 8 dereferenceable(16) %0) #3 comdat align 2 {
  %2 = alloca ptr, align 8
  store ptr %0, ptr %2, align 8, !tbaa !29
  %3 = load ptr, ptr %2, align 8
  %4 = getelementptr inbounds nuw %"class.lean::optional", ptr %3, i32 0, i32 1
  ret ptr %4
}

; Function Attrs: mustprogress nounwind uwtable
define linkonce_odr hidden noundef zeroext i1 @_ZNK4lean8optionalINS_4exprEEcvbEv(ptr noundef nonnull align 8 dereferenceable(16) %0) #3 comdat align 2 {
  %2 = alloca ptr, align 8
  store ptr %0, ptr %2, align 8, !tbaa !29
  %3 = load ptr, ptr %2, align 8
  %4 = getelementptr inbounds nuw %"class.lean::optional", ptr %3, i32 0, i32 0
  %5 = load i8, ptr %4, align 8, !tbaa !31, !range !34, !noundef !35
  %6 = trunc i8 %5 to i1
  ret i1 %6
}

; Function Attrs: mustprogress nounwind uwtable
define linkonce_odr hidden noundef nonnull align 8 dereferenceable(24) ptr @_ZNSt6vectorIN4lean10expr_cache5entryESaIS2_EEixEm(ptr noundef nonnull align 8 dereferenceable(24) %0, i64 noundef %1) #3 comdat align 2 {
  %3 = alloca ptr, align 8
  %4 = alloca i64, align 8
  store ptr %0, ptr %3, align 8, !tbaa !24
  store i64 %1, ptr %4, align 8, !tbaa !26
  %5 = load ptr, ptr %3, align 8
  %6 = getelementptr inbounds nuw %"struct.std::_Vector_base", ptr %5, i32 0, i32 0
  %7 = getelementptr inbounds nuw %"struct.std::_Vector_base<lean::expr_cache::entry, std::allocator<lean::expr_cache::entry>>::_Vector_impl_data", ptr %6, i32 0, i32 0
  %8 = load ptr, ptr %7, align 8, !tbaa !28
  %9 = load i64, ptr %4, align 8, !tbaa !26
  %10 = getelementptr inbounds nuw %"struct.lean::expr_cache::entry", ptr %8, i64 %9
  ret ptr %10
}

; Function Attrs: inlinehint mustprogress uwtable
define linkonce_odr hidden noundef i32 @_ZN4lean4hashERKNS_4exprE(ptr noundef nonnull align 8 dereferenceable(8) %0) #2 comdat {
  %2 = alloca ptr, align 8
  %3 = alloca i32, align 4
  store ptr %0, ptr %2, align 8, !tbaa !8
  call void @llvm.lifetime.start.p0(i64 4, ptr %3) #14
  %4 = load ptr, ptr %2, align 8, !tbaa !8
  %5 = call noundef i64 @_ZN4lean8get_dataERKNS_4exprE(ptr noundef nonnull align 8 dereferenceable(8) %4)
  %6 = trunc i64 %5 to i32
  store i32 %6, ptr %3, align 4, !tbaa !23
  %7 = load i32, ptr %3, align 4, !tbaa !23
  call void @llvm.lifetime.end.p0(i64 4, ptr %3) #14
  ret i32 %7
}

; Function Attrs: mustprogress uwtable
define hidden noundef ptr @_ZN4lean10expr_cache4findERKNS_4exprE(ptr noundef nonnull align 8 dereferenceable(56) %0, ptr noundef nonnull align 8 dereferenceable(8) %1) #0 align 2 {
  %3 = alloca ptr, align 8
  %4 = alloca ptr, align 8
  %5 = alloca ptr, align 8
  %6 = alloca i32, align 4
  %7 = alloca i32, align 4
  store ptr %0, ptr %4, align 8, !tbaa !3
  store ptr %1, ptr %5, align 8, !tbaa !8
  %8 = load ptr, ptr %4, align 8
  call void @llvm.lifetime.start.p0(i64 4, ptr %6) #14
  %9 = load ptr, ptr %5, align 8, !tbaa !8
  %10 = call noundef i32 @_ZN4lean4hashERKNS_4exprE(ptr noundef nonnull align 8 dereferenceable(8) %9)
  %11 = getelementptr inbounds nuw %"class.lean::expr_cache", ptr %8, i32 0, i32 0
  %12 = load i32, ptr %11, align 8, !tbaa !10
  %13 = urem i32 %10, %12
  store i32 %13, ptr %6, align 4, !tbaa !23
  %14 = getelementptr inbounds nuw %"class.lean::expr_cache", ptr %8, i32 0, i32 1
  %15 = load i32, ptr %6, align 4, !tbaa !23
  %16 = zext i32 %15 to i64
  %17 = call noundef nonnull align 8 dereferenceable(24) ptr @_ZNSt6vectorIN4lean10expr_cache5entryESaIS2_EEixEm(ptr noundef nonnull align 8 dereferenceable(24) %14, i64 noundef %16) #14
  %18 = getelementptr inbounds nuw %"struct.lean::expr_cache::entry", ptr %17, i32 0, i32 0
  %19 = call noundef zeroext i1 @_ZNK4lean8optionalINS_4exprEEcvbEv(ptr noundef nonnull align 8 dereferenceable(16) %18)
  br i1 %19, label %20, label %35

20:                                               ; preds = %2
  %21 = getelementptr inbounds nuw %"class.lean::expr_cache", ptr %8, i32 0, i32 1
  %22 = load i32, ptr %6, align 4, !tbaa !23
  %23 = zext i32 %22 to i64
  %24 = call noundef nonnull align 8 dereferenceable(24) ptr @_ZNSt6vectorIN4lean10expr_cache5entryESaIS2_EEixEm(ptr noundef nonnull align 8 dereferenceable(24) %21, i64 noundef %23) #14
  %25 = getelementptr inbounds nuw %"struct.lean::expr_cache::entry", ptr %24, i32 0, i32 0
  %26 = call noundef nonnull align 8 dereferenceable(8) ptr @_ZN4lean8optionalINS_4exprEEdeEv(ptr noundef nonnull align 8 dereferenceable(16) %25)
  %27 = load ptr, ptr %5, align 8, !tbaa !8
  %28 = call noundef zeroext i1 @_ZN4lean11is_bi_equalERKNS_4exprES2_(ptr noundef nonnull align 8 dereferenceable(8) %26, ptr noundef nonnull align 8 dereferenceable(8) %27)
  br i1 %28, label %29, label %35

29:                                               ; preds = %20
  %30 = getelementptr inbounds nuw %"class.lean::expr_cache", ptr %8, i32 0, i32 1
  %31 = load i32, ptr %6, align 4, !tbaa !23
  %32 = zext i32 %31 to i64
  %33 = call noundef nonnull align 8 dereferenceable(24) ptr @_ZNSt6vectorIN4lean10expr_cache5entryESaIS2_EEixEm(ptr noundef nonnull align 8 dereferenceable(24) %30, i64 noundef %32) #14
  %34 = getelementptr inbounds nuw %"struct.lean::expr_cache::entry", ptr %33, i32 0, i32 1
  store ptr %34, ptr %3, align 8
  store i32 1, ptr %7, align 4
  br label %36

35:                                               ; preds = %20, %2
  store ptr null, ptr %3, align 8
  store i32 1, ptr %7, align 4
  br label %36

36:                                               ; preds = %35, %29
  call void @llvm.lifetime.end.p0(i64 4, ptr %6) #14
  %37 = load ptr, ptr %3, align 8
  ret ptr %37
}