; Function Attrs: mustprogress uwtable
define hidden noundef ptr @_ZN4lean10expr_cache4findERKNS_4exprE(ptr noundef nonnull readonly align 8 captures(none) dereferenceable(56) %0, ptr noundef nonnull align 8 dereferenceable(8) %1) local_unnamed_addr #0 align 2 {
  %3 = load ptr, ptr %1, align 8, !tbaa !3
  %4 = getelementptr i8, ptr %3, i64 4
  %.val.i.i = load i32, ptr %4, align 4
  %5 = lshr i32 %.val.i.i, 13
  %6 = and i32 %5, 2040
  %7 = getelementptr inbounds nuw i8, ptr %3, i64 8
  %8 = zext nneg i32 %6 to i64
  %9 = getelementptr inbounds nuw i8, ptr %7, i64 %8
  %10 = load i64, ptr %9, align 8, !tbaa !8
  %11 = trunc i64 %10 to i32
  %12 = load i32, ptr %0, align 8, !tbaa !10
  %13 = urem i32 %11, %12
  %14 = getelementptr inbounds nuw i8, ptr %0, i64 8
  %15 = zext i32 %13 to i64
  %16 = load ptr, ptr %14, align 8, !tbaa !23
  %17 = getelementptr inbounds nuw %"struct.lean::expr_cache::entry", ptr %16, i64 %15
  %18 = load i8, ptr %17, align 8, !tbaa !24, !range !27, !noundef !28
  %19 = trunc nuw i8 %18 to i1
  br i1 %19, label %20, label %26

20:                                               ; preds = %2
  %21 = getelementptr inbounds nuw i8, ptr %17, i64 8
  %22 = tail call noundef zeroext i1 @_ZN4lean11is_bi_equalERKNS_4exprES2_(ptr noundef nonnull align 8 dereferenceable(8) %21, ptr noundef nonnull align 8 dereferenceable(8) %1)
  br i1 %22, label %23, label %26

23:                                               ; preds = %20
  %24 = load ptr, ptr %14, align 8, !tbaa !23
  %25 = getelementptr inbounds nuw %"struct.lean::expr_cache::entry", ptr %24, i64 %15, i32 1
  br label %26

26:                                               ; preds = %2, %20, %23
  %.0 = phi ptr [ %25, %23 ], [ null, %20 ], [ null, %2 ]
  ret ptr %.0
}